; Function Attrs: mustprogress uwtable
define void @_ZN3g2o11CommandArgs5paramERKNSt7__cxx1112basic_stringIcSt11char_traitsIcESaIcEEERbbS8_(ptr noundef nonnull align 8 dereferenceable(144) %0, ptr noundef nonnull align 8 dereferenceable(32) %1, ptr noundef nonnull align 1 dereferenceable(1) %2, i1 noundef zeroext %3, ptr noundef nonnull align 8 dereferenceable(32) %4) local_unnamed_addr #5 align 2 personality ptr @__gxx_personality_v0 {
  %6 = alloca %"struct.g2o::CommandArgs::CommandArgument", align 8
  %7 = zext i1 %3 to i8
  call void @_ZN3g2o11CommandArgs15CommandArgumentC2Ev(ptr noundef nonnull align 8 dereferenceable(82) %6)
  %8 = invoke noundef nonnull align 8 dereferenceable(32) ptr @_ZNSt7__cxx1112basic_stringIcSt11char_traitsIcESaIcEEaSERKS4_(ptr noundef nonnull align 8 dereferenceable(32) %6, ptr noundef nonnull align 8 dereferenceable(32) %1)
          to label %9 unwind label %29

9:                                                ; preds = %5
  %10 = getelementptr inbounds nuw i8, ptr %6, i64 32
  %11 = invoke noundef nonnull align 8 dereferenceable(32) ptr @_ZNSt7__cxx1112basic_stringIcSt11char_traitsIcESaIcEEaSERKS4_(ptr noundef nonnull align 8 dereferenceable(32) %10, ptr noundef nonnull align 8 dereferenceable(32) %4)
          to label %12 unwind label %29

12:                                               ; preds = %9
  %13 = getelementptr inbounds nuw i8, ptr %6, i64 64
  store i32 4, ptr %13, align 8
  %14 = getelementptr inbounds nuw i8, ptr %6, i64 72
  store ptr %2, ptr %14, align 8
  %15 = getelementptr inbounds nuw i8, ptr %6, i64 80
  store i8 0, ptr %15, align 8
  store i8 %7, ptr %2, align 1
  %16 = getelementptr inbounds i8, ptr %0, i64 16
  %17 = load ptr, ptr %16, align 8
  %18 = getelementptr inbounds i8, ptr %0, i64 24
  %19 = load ptr, ptr %18, align 8
  %.not.i = icmp eq ptr %17, %19
  br i1 %.not.i, label %27, label %20

20:                                               ; preds = %12
  invoke void @_ZNSt7__cxx1112basic_stringIcSt11char_traitsIcESaIcEEC1ERKS4_(ptr noundef nonnull align 8 dereferenceable(32) %17, ptr noundef nonnull align 8 dereferenceable(32) %6)
          to label %.noexc unwind label %29

.noexc:                                           ; preds = %20
  %21 = getelementptr inbounds nuw i8, ptr %17, i64 32
  invoke void @_ZNSt7__cxx1112basic_stringIcSt11char_traitsIcESaIcEEC1ERKS4_(ptr noundef nonnull align 8 dereferenceable(32) %21, ptr noundef nonnull align 8 dereferenceable(32) %10)
          to label %_ZNSt16allocator_traitsISaIN3g2o11CommandArgs15CommandArgumentEEE9constructIS2_JRKS2_EEEvRS3_PT_DpOT0_.exit.i unwind label %22

22:                                               ; preds = %.noexc
  %23 = landingpad { ptr, i32 }
          cleanup
  call void @_ZNSt7__cxx1112basic_stringIcSt11char_traitsIcESaIcEED1Ev(ptr noundef nonnull align 8 dereferenceable(32) %17) #20
  br label %.body

_ZNSt16allocator_traitsISaIN3g2o11CommandArgs15CommandArgumentEEE9constructIS2_JRKS2_EEEvRS3_PT_DpOT0_.exit.i: ; preds = %.noexc
  %24 = getelementptr inbounds nuw i8, ptr %17, i64 64
  call void @llvm.memcpy.p0.p0.i64(ptr noundef nonnull align 8 dereferenceable(18) %24, ptr noundef nonnull align 8 dereferenceable(18) %13, i64 18, i1 false)
  %25 = load ptr, ptr %16, align 8
  %26 = getelementptr inbounds i8, ptr %25, i64 88
  store ptr %26, ptr %16, align 8
  br label %_ZNSt6vectorIN3g2o11CommandArgs15CommandArgumentESaIS2_EE9push_backERKS2_.exit

27:                                               ; preds = %12
  %28 = getelementptr inbounds nuw i8, ptr %0, i64 8
  invoke void @_ZNSt6vectorIN3g2o11CommandArgs15CommandArgumentESaIS2_EE17_M_realloc_insertIJRKS2_EEEvN9__gnu_cxx17__normal_iteratorIPS2_S4_EEDpOT_(ptr noundef nonnull align 8 dereferenceable(24) %28, ptr %17, ptr noundef nonnull align 8 dereferenceable(82) %6)
          to label %_ZNSt6vectorIN3g2o11CommandArgs15CommandArgumentESaIS2_EE9push_backERKS2_.exit unwind label %29

_ZNSt6vectorIN3g2o11CommandArgs15CommandArgumentESaIS2_EE9push_backERKS2_.exit: ; preds = %_ZNSt16allocator_traitsISaIN3g2o11CommandArgs15CommandArgumentEEE9constructIS2_JRKS2_EEEvRS3_PT_DpOT0_.exit.i, %27
  call void @_ZNSt7__cxx1112basic_stringIcSt11char_traitsIcESaIcEED1Ev(ptr noundef nonnull align 8 dereferenceable(32) %10) #20
  call void @_ZNSt7__cxx1112basic_stringIcSt11char_traitsIcESaIcEED1Ev(ptr noundef nonnull align 8 dereferenceable(32) %6) #20
  ret void

29:                                               ; preds = %27, %20, %9, %5
  %30 = landingpad { ptr, i32 }
          cleanup
  br label %.body

.body:                                            ; preds = %22, %29
  %eh.lpad-body = phi { ptr, i32 } [ %30, %29 ], [ %23, %22 ]
  %31 = getelementptr inbounds nuw i8, ptr %6, i64 32
  call void @_ZNSt7__cxx1112basic_stringIcSt11char_traitsIcESaIcEED1Ev(ptr noundef nonnull align 8 dereferenceable(32) %31) #20
  call void @_ZNSt7__cxx1112basic_stringIcSt11char_traitsIcESaIcEED1Ev(ptr noundef nonnull align 8 dereferenceable(32) %6) #20
  resume { ptr, i32 } %eh.lpad-body
}